; Function Attrs: mustprogress uwtable
define noundef range(i32 -1, 1) i32 @_Z15gmx_gethostnamePcm(ptr noundef %0, i64 noundef %1) local_unnamed_addr #0 {
  %3 = icmp ugt i64 %1, 7
  br i1 %3, label %5, label %4

4:                                                ; preds = %2
  tail call void @_ZN3gmx8internal13assertHandlerEPKcS2_S2_S2_i(ptr noundef nonnull @.str, ptr noundef nonnull @.str.1, ptr noundef nonnull @"__PRETTY_FUNCTION__._ZZ15gmx_gethostnamePcmENK3$_0clEv", ptr noundef nonnull @.str.2, i32 noundef 79) #9
  unreachable

5:                                                ; preds = %2
  %6 = add i64 %1, -1
  %7 = tail call i32 @gethostname(ptr noundef %0, i64 noundef %6) #10
  %8 = icmp eq i32 %7, 0
  br i1 %8, label %9, label %11

9:                                                ; preds = %5
  %10 = getelementptr inbounds nuw i8, ptr %0, i64 %6
  store i8 0, ptr %10, align 1, !tbaa !4
  br label %12

11:                                               ; preds = %5
  store i64 31093567915781749, ptr %0, align 1
  br label %12

12:                                               ; preds = %11, %9
  %.0 = phi i32 [ 0, %9 ], [ -1, %11 ]
  ret i32 %.0
}